; Function Attrs: nounwind uwtable
define nonnull ptr @l_compareOn___at_Std_Time_Weekday_instOrd___spec__1___boxed(ptr noundef %0, ptr noundef %1, ptr noundef %2) #1 {
  %4 = ptrtoint ptr %1 to i64
  %5 = and i64 %4, 1
  %.not = icmp eq i64 %5, 0
  br i1 %.not, label %6, label %lean_dec.exit8

6:                                                ; preds = %3
  %7 = load i32, ptr %1, align 4, !tbaa !4
  %8 = icmp sgt i32 %7, 1
  br i1 %8, label %9, label %11, !prof !9

9:                                                ; preds = %6
  %10 = add nsw i32 %7, -1
  store i32 %10, ptr %1, align 4, !tbaa !4
  br label %lean_dec.exit8

11:                                               ; preds = %6
  %.not.i = icmp eq i32 %7, 0
  br i1 %.not.i, label %lean_dec.exit8, label %12

12:                                               ; preds = %11
  tail call void @lean_dec_ref_cold(ptr noundef nonnull %1) #7
  br label %lean_dec.exit8

lean_dec.exit8:                                   ; preds = %12, %11, %9, %3
  %13 = ptrtoint ptr %2 to i64
  %14 = and i64 %13, 1
  %.not11 = icmp eq i64 %14, 0
  br i1 %.not11, label %15, label %lean_dec.exit

15:                                               ; preds = %lean_dec.exit8
  %16 = load i32, ptr %2, align 4, !tbaa !4
  %17 = icmp sgt i32 %16, 1
  br i1 %17, label %18, label %20, !prof !9

18:                                               ; preds = %15
  %19 = add nsw i32 %16, -1
  store i32 %19, ptr %2, align 4, !tbaa !4
  br label %lean_dec.exit

20:                                               ; preds = %15
  %.not.i9 = icmp eq i32 %16, 0
  br i1 %.not.i9, label %lean_dec.exit, label %21

21:                                               ; preds = %20
  tail call void @lean_dec_ref_cold(ptr noundef nonnull %2) #7
  br label %lean_dec.exit

lean_dec.exit:                                    ; preds = %21, %20, %18, %lean_dec.exit8
  %22 = lshr i64 %13, 1
  %23 = trunc i64 %22 to i8
  %24 = lshr i64 %4, 1
  %25 = trunc i64 %24 to i8
  %26 = tail call zeroext i8 @l_compareOn___at_Std_Time_Weekday_instOrd___spec__1(ptr noundef %0, i8 noundef zeroext %25, i8 noundef zeroext %23)
  %27 = shl nuw nsw i8 %26, 1
  %28 = or disjoint i8 %27, 1
  %29 = zext nneg i8 %28 to i64
  %30 = inttoptr i64 %29 to ptr
  ret ptr %30
}